target datalayout = "e-m:e-p270:32:32-p271:32:32-p272:64:64-i64:64-i128:128-f80:128-n8:16:32:64-S128"
target triple = "x86_64-pc-linux-gnu"

%struct.AVFilterContext = type { ptr, ptr, ptr, ptr, ptr, i32, ptr, ptr, i32, ptr, ptr, i32, i32, ptr, ptr, ptr, ptr, i32, ptr, i32, i32 }
%struct.ConvolveContext = type { ptr, %struct.FFFrameSync, [4 x [16 x ptr]], [4 x [16 x ptr]], [4 x ptr], [4 x ptr], [4 x i32], [4 x i32], [4 x i32], [4 x i32], [4 x i32], [4 x i32], [4 x i32], [4 x ptr], [4 x ptr], [4 x ptr], [4 x ptr], [4 x ptr], [4 x ptr], [4 x ptr], [4 x ptr], i32, i32, i32, float, i32, [4 x i32], ptr, ptr, ptr, ptr }
%struct.FFFrameSync = type { ptr, ptr, i32, %struct.AVRational, i64, ptr, ptr, i32, i32, i8, i8, ptr, i32, i32, i32, i32 }
%struct.AVRational = type { i32, i32 }
%struct.ThreadData = type { ptr, ptr, ptr, ptr, i32, i32 }
%struct.AVComplexFloat = type { float, float }

; Function Attrs: nounwind uwtable
define internal i32 @complex_multiply(ptr noundef %0, ptr noundef %1, i32 noundef %2, i32 noundef %3) #0 {
  %5 = alloca ptr, align 8
  %6 = alloca ptr, align 8
  %7 = alloca i32, align 4
  %8 = alloca i32, align 4
  %9 = alloca ptr, align 8
  %10 = alloca ptr, align 8
  %11 = alloca ptr, align 8
  %12 = alloca ptr, align 8
  %13 = alloca float, align 4
  %14 = alloca i32, align 4
  %15 = alloca i32, align 4
  %16 = alloca i32, align 4
  %17 = alloca i32, align 4
  %18 = alloca i32, align 4
  %19 = alloca i32, align 4
  %20 = alloca float, align 4
  %21 = alloca float, align 4
  %22 = alloca float, align 4
  %23 = alloca float, align 4
  store ptr %0, ptr %5, align 8, !tbaa !4
  store ptr %1, ptr %6, align 8, !tbaa !92
  store i32 %2, ptr %7, align 4, !tbaa !37
  store i32 %3, ptr %8, align 4, !tbaa !37
  call void @llvm.lifetime.start.p0(i64 8, ptr %9) #10
  %24 = load ptr, ptr %5, align 8, !tbaa !4
  %25 = getelementptr inbounds nuw %struct.AVFilterContext, ptr %24, i32 0, i32 9
  %26 = load ptr, ptr %25, align 8, !tbaa !9
  store ptr %26, ptr %9, align 8, !tbaa !22
  call void @llvm.lifetime.start.p0(i64 8, ptr %10) #10
  %27 = load ptr, ptr %6, align 8, !tbaa !92
  store ptr %27, ptr %10, align 8, !tbaa !93
  call void @llvm.lifetime.start.p0(i64 8, ptr %11) #10
  %28 = load ptr, ptr %10, align 8, !tbaa !93
  %29 = getelementptr inbounds nuw %struct.ThreadData, ptr %28, i32 0, i32 0
  %30 = load ptr, ptr %29, align 8, !tbaa !86
  store ptr %30, ptr %11, align 8, !tbaa !63
  call void @llvm.lifetime.start.p0(i64 8, ptr %12) #10
  %31 = load ptr, ptr %10, align 8, !tbaa !93
  %32 = getelementptr inbounds nuw %struct.ThreadData, ptr %31, i32 0, i32 1
  %33 = load ptr, ptr %32, align 8, !tbaa !87
  store ptr %33, ptr %12, align 8, !tbaa !63
  call void @llvm.lifetime.start.p0(i64 4, ptr %13) #10
  %34 = load ptr, ptr %9, align 8, !tbaa !22
  %35 = getelementptr inbounds nuw %struct.ConvolveContext, ptr %34, i32 0, i32 24
  %36 = load float, ptr %35, align 4, !tbaa !106
  store float %36, ptr %13, align 4, !tbaa !73
  call void @llvm.lifetime.start.p0(i64 4, ptr %14) #10
  %37 = load ptr, ptr %10, align 8, !tbaa !93
  %38 = getelementptr inbounds nuw %struct.ThreadData, ptr %37, i32 0, i32 5
  %39 = load i32, ptr %38, align 4, !tbaa !85
  store i32 %39, ptr %14, align 4, !tbaa !37
  call void @llvm.lifetime.start.p0(i64 4, ptr %15) #10
  %40 = load i32, ptr %14, align 4, !tbaa !37
  %41 = load i32, ptr %7, align 4, !tbaa !37
  %42 = mul nsw i32 %40, %41
  %43 = load i32, ptr %8, align 4, !tbaa !37
  %44 = sdiv i32 %42, %43
  store i32 %44, ptr %15, align 4, !tbaa !37
  call void @llvm.lifetime.start.p0(i64 4, ptr %16) #10
  %45 = load i32, ptr %14, align 4, !tbaa !37
  %46 = load i32, ptr %7, align 4, !tbaa !37
  %47 = add nsw i32 %46, 1
  %48 = mul nsw i32 %45, %47
  %49 = load i32, ptr %8, align 4, !tbaa !37
  %50 = sdiv i32 %48, %49
  store i32 %50, ptr %16, align 4, !tbaa !37
  call void @llvm.lifetime.start.p0(i64 4, ptr %17) #10
  call void @llvm.lifetime.start.p0(i64 4, ptr %18) #10
  %51 = load i32, ptr %15, align 4, !tbaa !37
  store i32 %51, ptr %17, align 4, !tbaa !37
  br label %52

52:                                               ; preds = %130, %4
  %53 = load i32, ptr %17, align 4, !tbaa !37
  %54 = load i32, ptr %16, align 4, !tbaa !37
  %55 = icmp slt i32 %53, %54
  br i1 %55, label %56, label %133

56:                                               ; preds = %52
  call void @llvm.lifetime.start.p0(i64 4, ptr %19) #10
  %57 = load i32, ptr %17, align 4, !tbaa !37
  %58 = load i32, ptr %14, align 4, !tbaa !37
  %59 = mul nsw i32 %57, %58
  store i32 %59, ptr %19, align 4, !tbaa !37
  store i32 0, ptr %18, align 4, !tbaa !37
  br label %60

60:                                               ; preds = %126, %56
  %61 = load i32, ptr %18, align 4, !tbaa !37
  %62 = load i32, ptr %14, align 4, !tbaa !37
  %63 = icmp slt i32 %61, %62
  br i1 %63, label %64, label %129

64:                                               ; preds = %60
  call void @llvm.lifetime.start.p0(i64 4, ptr %20) #10
  call void @llvm.lifetime.start.p0(i64 4, ptr %21) #10
  call void @llvm.lifetime.start.p0(i64 4, ptr %22) #10
  call void @llvm.lifetime.start.p0(i64 4, ptr %23) #10
  %65 = load ptr, ptr %11, align 8, !tbaa !63
  %66 = load i32, ptr %19, align 4, !tbaa !37
  %67 = load i32, ptr %18, align 4, !tbaa !37
  %68 = add nsw i32 %66, %67
  %69 = sext i32 %68 to i64
  %70 = getelementptr inbounds %struct.AVComplexFloat, ptr %65, i64 %69
  %71 = getelementptr inbounds nuw %struct.AVComplexFloat, ptr %70, i32 0, i32 0
  %72 = load float, ptr %71, align 4, !tbaa !98
  store float %72, ptr %20, align 4, !tbaa !73
  %73 = load ptr, ptr %11, align 8, !tbaa !63
  %74 = load i32, ptr %19, align 4, !tbaa !37
  %75 = load i32, ptr %18, align 4, !tbaa !37
  %76 = add nsw i32 %74, %75
  %77 = sext i32 %76 to i64
  %78 = getelementptr inbounds %struct.AVComplexFloat, ptr %73, i64 %77
  %79 = getelementptr inbounds nuw %struct.AVComplexFloat, ptr %78, i32 0, i32 1
  %80 = load float, ptr %79, align 4, !tbaa !100
  store float %80, ptr %21, align 4, !tbaa !73
  %81 = load ptr, ptr %12, align 8, !tbaa !63
  %82 = load i32, ptr %19, align 4, !tbaa !37
  %83 = load i32, ptr %18, align 4, !tbaa !37
  %84 = add nsw i32 %82, %83
  %85 = sext i32 %84 to i64
  %86 = getelementptr inbounds %struct.AVComplexFloat, ptr %81, i64 %85
  %87 = getelementptr inbounds nuw %struct.AVComplexFloat, ptr %86, i32 0, i32 0
  %88 = load float, ptr %87, align 4, !tbaa !98
  %89 = load float, ptr %13, align 4, !tbaa !73
  %90 = fadd nsz float %88, %89
  store float %90, ptr %22, align 4, !tbaa !73
  %91 = load ptr, ptr %12, align 8, !tbaa !63
  %92 = load i32, ptr %19, align 4, !tbaa !37
  %93 = load i32, ptr %18, align 4, !tbaa !37
  %94 = add nsw i32 %92, %93
  %95 = sext i32 %94 to i64
  %96 = getelementptr inbounds %struct.AVComplexFloat, ptr %91, i64 %95
  %97 = getelementptr inbounds nuw %struct.AVComplexFloat, ptr %96, i32 0, i32 1
  %98 = load float, ptr %97, align 4, !tbaa !100
  store float %98, ptr %23, align 4, !tbaa !73
  %99 = load float, ptr %22, align 4, !tbaa !73
  %100 = load float, ptr %20, align 4, !tbaa !73
  %101 = load float, ptr %23, align 4, !tbaa !73
  %102 = load float, ptr %21, align 4, !tbaa !73
  %103 = fmul nsz float %101, %102
  %104 = fneg nsz float %103
  %105 = call nsz float @llvm.fmuladd.f32(float %99, float %100, float %104)
  %106 = load ptr, ptr %11, align 8, !tbaa !63
  %107 = load i32, ptr %19, align 4, !tbaa !37
  %108 = load i32, ptr %18, align 4, !tbaa !37
  %109 = add nsw i32 %107, %108
  %110 = sext i32 %109 to i64
  %111 = getelementptr inbounds %struct.AVComplexFloat, ptr %106, i64 %110
  %112 = getelementptr inbounds nuw %struct.AVComplexFloat, ptr %111, i32 0, i32 0
  store float %105, ptr %112, align 4, !tbaa !98
  %113 = load float, ptr %23, align 4, !tbaa !73
  %114 = load float, ptr %20, align 4, !tbaa !73
  %115 = load float, ptr %22, align 4, !tbaa !73
  %116 = load float, ptr %21, align 4, !tbaa !73
  %117 = fmul nsz float %115, %116
  %118 = call nsz float @llvm.fmuladd.f32(float %113, float %114, float %117)
  %119 = load ptr, ptr %11, align 8, !tbaa !63
  %120 = load i32, ptr %19, align 4, !tbaa !37
  %121 = load i32, ptr %18, align 4, !tbaa !37
  %122 = add nsw i32 %120, %121
  %123 = sext i32 %122 to i64
  %124 = getelementptr inbounds %struct.AVComplexFloat, ptr %119, i64 %123
  %125 = getelementptr inbounds nuw %struct.AVComplexFloat, ptr %124, i32 0, i32 1
  store float %118, ptr %125, align 4, !tbaa !100
  call void @llvm.lifetime.end.p0(i64 4, ptr %23) #10
  call void @llvm.lifetime.end.p0(i64 4, ptr %22) #10
  call void @llvm.lifetime.end.p0(i64 4, ptr %21) #10
  call void @llvm.lifetime.end.p0(i64 4, ptr %20) #10
  br label %126

126:                                              ; preds = %64
  %127 = load i32, ptr %18, align 4, !tbaa !37
  %128 = add nsw i32 %127, 1
  store i32 %128, ptr %18, align 4, !tbaa !37
  br label %60, !llvm.loop !107

129:                                              ; preds = %60
  call void @llvm.lifetime.end.p0(i64 4, ptr %19) #10
  br label %130

130:                                              ; preds = %129
  %131 = load i32, ptr %17, align 4, !tbaa !37
  %132 = add nsw i32 %131, 1
  store i32 %132, ptr %17, align 4, !tbaa !37
  br label %52, !llvm.loop !108

133:                                              ; preds = %52
  call void @llvm.lifetime.end.p0(i64 4, ptr %18) #10
  call void @llvm.lifetime.end.p0(i64 4, ptr %17) #10
  call void @llvm.lifetime.end.p0(i64 4, ptr %16) #10
  call void @llvm.lifetime.end.p0(i64 4, ptr %15) #10
  call void @llvm.lifetime.end.p0(i64 4, ptr %14) #10
  call void @llvm.lifetime.end.p0(i64 4, ptr %13) #10
  call void @llvm.lifetime.end.p0(i64 8, ptr %12) #10
  call void @llvm.lifetime.end.p0(i64 8, ptr %11) #10
  call void @llvm.lifetime.end.p0(i64 8, ptr %10) #10
  call void @llvm.lifetime.end.p0(i64 8, ptr %9) #10
  ret i32 0
}